; Function Attrs: mustprogress uwtable
define dso_local noundef zeroext i1 @_ZN6spdlog10should_logENS_5level10level_enumE(i32 noundef %0) local_unnamed_addr #6 personality ptr @__gxx_personality_v0 {
  %2 = load atomic i8, ptr @_ZGVZN6spdlog7details8registry8instanceEvE10s_instance acquire, align 8
  %3 = icmp eq i8 %2, 0
  br i1 %3, label %4, label %_ZN6spdlog18default_logger_rawEv.exit, !prof !79

4:                                                ; preds = %1
  %5 = tail call i32 @__cxa_guard_acquire(ptr nonnull @_ZGVZN6spdlog7details8registry8instanceEvE10s_instance) #37
  %.not.i.i = icmp eq i32 %5, 0
  br i1 %.not.i.i, label %_ZN6spdlog18default_logger_rawEv.exit, label %6

6:                                                ; preds = %4
  invoke void @_ZN6spdlog7details8registryC2Ev(ptr noundef nonnull align 8 dereferenceable(336) @_ZZN6spdlog7details8registry8instanceEvE10s_instance)
          to label %7 unwind label %9

7:                                                ; preds = %6
  %8 = tail call i32 @__cxa_atexit(ptr nonnull @_ZN6spdlog7details8registryD2Ev, ptr nonnull @_ZZN6spdlog7details8registry8instanceEvE10s_instance, ptr nonnull @__dso_handle) #37
  tail call void @__cxa_guard_release(ptr nonnull @_ZGVZN6spdlog7details8registry8instanceEvE10s_instance) #37
  br label %_ZN6spdlog18default_logger_rawEv.exit

9:                                                ; preds = %6
  %10 = landingpad { ptr, i32 }
          cleanup
  tail call void @__cxa_guard_abort(ptr nonnull @_ZGVZN6spdlog7details8registry8instanceEvE10s_instance) #37
  resume { ptr, i32 } %10

_ZN6spdlog18default_logger_rawEv.exit:            ; preds = %1, %4, %7
  %11 = load ptr, ptr getelementptr inbounds nuw (i8, ptr @_ZZN6spdlog7details8registry8instanceEvE10s_instance, i64 304), align 8, !tbaa !158
  %12 = getelementptr inbounds nuw i8, ptr %11, i64 64
  %13 = load atomic i32, ptr %12 monotonic, align 4
  %14 = icmp sge i32 %0, %13
  ret i1 %14
}